; Function Attrs: mustprogress uwtable
define internal { double, double } @_ZL13cea_e_inverse5PJ_XYP8PJconsts(double %0, double %1, ptr nocapture noundef readonly %2) #0 {
  %4 = fmul double %1, 2.000000e+00
  %5 = getelementptr inbounds i8, ptr %2, i64 488
  %6 = load double, ptr %5, align 8
  %7 = fmul double %4, %6
  %8 = getelementptr inbounds i8, ptr %2, i64 88
  %9 = load ptr, ptr %8, align 8
  %10 = load double, ptr %9, align 8
  %11 = fdiv double %7, %10
  %12 = tail call double @asin(double noundef %11) #8
  %13 = load ptr, ptr %8, align 8
  %14 = getelementptr inbounds i8, ptr %13, i64 8
  %15 = load ptr, ptr %14, align 8
  %16 = tail call noundef double @_Z10pj_authlatdPd(double noundef %12, ptr noundef %15)
  %17 = load double, ptr %5, align 8
  %18 = fdiv double %0, %17
  %.fca.0.insert = insertvalue { double, double } poison, double %18, 0
  %.fca.1.insert = insertvalue { double, double } %.fca.0.insert, double %16, 1
  ret { double, double } %.fca.1.insert
}